; Function Attrs: mustprogress nounwind uwtable
define void @_ZN3spv11SpirvStream21disassembleImmediatesEi(ptr nocapture noundef nonnull align 8 dereferenceable(180) %0, i32 noundef %1) local_unnamed_addr #3 align 2 {
  %3 = icmp sgt i32 %1, 0
  br i1 %3, label %.lr.ph, label %._crit_edge

.lr.ph:                                           ; preds = %2
  %4 = getelementptr inbounds i8, ptr %0, i64 8
  %5 = getelementptr inbounds i8, ptr %0, i64 16
  %6 = getelementptr inbounds i8, ptr %0, i64 28
  %7 = add nsw i32 %1, -1
  br label %8

8:                                                ; preds = %.lr.ph, %22
  %.06 = phi i32 [ 0, %.lr.ph ], [ %23, %22 ]
  %9 = load ptr, ptr %4, align 8
  %10 = load ptr, ptr %5, align 8
  %11 = load i32, ptr %6, align 4
  %12 = add nsw i32 %11, 1
  store i32 %12, ptr %6, align 4
  %13 = sext i32 %11 to i64
  %14 = load ptr, ptr %10, align 8
  %15 = getelementptr inbounds i32, ptr %14, i64 %13
  %16 = load i32, ptr %15, align 4
  %17 = tail call noundef nonnull align 8 dereferenceable(8) ptr @_ZNSolsEj(ptr noundef nonnull align 8 dereferenceable(8) %9, i32 noundef %16) #18
  %18 = icmp slt i32 %.06, %7
  br i1 %18, label %19, label %22

19:                                               ; preds = %8
  %20 = load ptr, ptr %4, align 8
  %21 = tail call noundef nonnull align 8 dereferenceable(8) ptr @_ZStlsISt11char_traitsIcEERSt13basic_ostreamIcT_ES5_PKc(ptr noundef nonnull align 8 dereferenceable(8) %20, ptr noundef nonnull @.str.15) #18
  br label %22

22:                                               ; preds = %8, %19
  %23 = add nuw nsw i32 %.06, 1
  %exitcond.not = icmp eq i32 %23, %1
  br i1 %exitcond.not, label %._crit_edge, label %8, !llvm.loop !24

._crit_edge:                                      ; preds = %22, %2
  ret void
}